; Function Attrs: nounwind uwtable
define internal fastcc void @_jumbleAlterObjectSchemaStmt(ptr noundef %0, ptr noundef nonnull readonly captures(none) %1) unnamed_addr #0 {
  %3 = getelementptr inbounds nuw i8, ptr %1, i64 4
  %4 = load ptr, ptr %0, align 8
  %5 = getelementptr inbounds nuw i8, ptr %0, i64 8
  %6 = load i64, ptr %5, align 8
  br label %.lr.ph.i

.lr.ph.i:                                         ; preds = %10, %2
  %.026.i = phi ptr [ %15, %10 ], [ %3, %2 ]
  %.02125.i = phi i64 [ %16, %10 ], [ 4, %2 ]
  %.02224.i = phi i64 [ %14, %10 ], [ %6, %2 ]
  %7 = icmp ugt i64 %.02224.i, 1023
  br i1 %7, label %8, label %10

8:                                                ; preds = %.lr.ph.i
  %9 = tail call i64 @hash_bytes_extended(ptr noundef %4, i32 noundef 1024, i64 noundef 0) #9
  store i64 %9, ptr %4, align 1
  br label %10

10:                                               ; preds = %8, %.lr.ph.i
  %.1.i = phi i64 [ 8, %8 ], [ %.02224.i, %.lr.ph.i ]
  %11 = sub nuw nsw i64 1024, %.1.i
  %12 = tail call i64 @llvm.umin.i64(i64 %.02125.i, i64 %11)
  %13 = getelementptr inbounds nuw i8, ptr %4, i64 %.1.i
  tail call void @llvm.memcpy.p0.p0.i64(ptr noundef nonnull align 1 dereferenceable(1) %13, ptr noundef nonnull align 1 dereferenceable(1) %.026.i, i64 %12, i1 false)
  %14 = add nuw nsw i64 %12, %.1.i
  %15 = getelementptr inbounds nuw i8, ptr %.026.i, i64 %12
  %16 = sub i64 %.02125.i, %12
  %.not.i = icmp eq i64 %16, 0
  br i1 %.not.i, label %AppendJumble.exit, label %.lr.ph.i, !llvm.loop !7

AppendJumble.exit:                                ; preds = %10
  store i64 %14, ptr %5, align 8
  %17 = getelementptr inbounds nuw i8, ptr %1, i64 8
  %18 = load ptr, ptr %17, align 8
  tail call fastcc void @_jumbleNode(ptr noundef nonnull %0, ptr noundef %18)
  %19 = getelementptr inbounds nuw i8, ptr %1, i64 16
  %20 = load ptr, ptr %19, align 8
  tail call fastcc void @_jumbleNode(ptr noundef nonnull %0, ptr noundef %20)
  %21 = getelementptr inbounds nuw i8, ptr %1, i64 24
  %22 = load ptr, ptr %21, align 8
  %.not = icmp eq ptr %22, null
  %.pre32 = load ptr, ptr %0, align 8
  %.pre33 = load i64, ptr %5, align 8
  br i1 %.not, label %36, label %23

23:                                               ; preds = %AppendJumble.exit
  %24 = tail call i64 @strlen(ptr noundef nonnull dereferenceable(1) %22) #8
  %25 = add i64 %24, 1
  %.not23.i = icmp eq i64 %25, 0
  br i1 %.not23.i, label %AppendJumble.exit19, label %.lr.ph.i13

.lr.ph.i13:                                       ; preds = %23, %29
  %.026.i14 = phi ptr [ %34, %29 ], [ %22, %23 ]
  %.02125.i15 = phi i64 [ %35, %29 ], [ %25, %23 ]
  %.02224.i16 = phi i64 [ %33, %29 ], [ %.pre33, %23 ]
  %26 = icmp ugt i64 %.02224.i16, 1023
  br i1 %26, label %27, label %29

27:                                               ; preds = %.lr.ph.i13
  %28 = tail call i64 @hash_bytes_extended(ptr noundef %.pre32, i32 noundef 1024, i64 noundef 0) #9
  store i64 %28, ptr %.pre32, align 1
  br label %29

29:                                               ; preds = %27, %.lr.ph.i13
  %.1.i17 = phi i64 [ 8, %27 ], [ %.02224.i16, %.lr.ph.i13 ]
  %30 = sub nuw nsw i64 1024, %.1.i17
  %31 = tail call i64 @llvm.umin.i64(i64 %.02125.i15, i64 %30)
  %32 = getelementptr inbounds nuw i8, ptr %.pre32, i64 %.1.i17
  tail call void @llvm.memcpy.p0.p0.i64(ptr noundef nonnull align 1 dereferenceable(1) %32, ptr noundef nonnull align 1 dereferenceable(1) %.026.i14, i64 %31, i1 false)
  %33 = add nuw nsw i64 %31, %.1.i17
  %34 = getelementptr inbounds nuw i8, ptr %.026.i14, i64 %31
  %35 = sub i64 %.02125.i15, %31
  %.not.i18 = icmp eq i64 %35, 0
  br i1 %.not.i18, label %AppendJumble.exit19.loopexit, label %.lr.ph.i13, !llvm.loop !7

AppendJumble.exit19.loopexit:                     ; preds = %29
  %.pre.pre = load ptr, ptr %0, align 8
  br label %AppendJumble.exit19

AppendJumble.exit19:                              ; preds = %AppendJumble.exit19.loopexit, %23
  %.pre = phi ptr [ %.pre32, %23 ], [ %.pre.pre, %AppendJumble.exit19.loopexit ]
  %.022.lcssa.i = phi i64 [ %.pre33, %23 ], [ %33, %AppendJumble.exit19.loopexit ]
  store i64 %.022.lcssa.i, ptr %5, align 8
  br label %36

36:                                               ; preds = %AppendJumble.exit19, %AppendJumble.exit
  %37 = phi i64 [ %.022.lcssa.i, %AppendJumble.exit19 ], [ %.pre33, %AppendJumble.exit ]
  %38 = phi ptr [ %.pre, %AppendJumble.exit19 ], [ %.pre32, %AppendJumble.exit ]
  %39 = getelementptr inbounds nuw i8, ptr %1, i64 32
  br label %.lr.ph.i20

.lr.ph.i20:                                       ; preds = %43, %36
  %.026.i21 = phi ptr [ %48, %43 ], [ %39, %36 ]
  %.02125.i22 = phi i64 [ %49, %43 ], [ 1, %36 ]
  %.02224.i23 = phi i64 [ %47, %43 ], [ %37, %36 ]
  %40 = icmp ugt i64 %.02224.i23, 1023
  br i1 %40, label %41, label %43

41:                                               ; preds = %.lr.ph.i20
  %42 = tail call i64 @hash_bytes_extended(ptr noundef %38, i32 noundef 1024, i64 noundef 0) #9
  store i64 %42, ptr %38, align 1
  br label %43

43:                                               ; preds = %41, %.lr.ph.i20
  %.1.i24 = phi i64 [ 8, %41 ], [ %.02224.i23, %.lr.ph.i20 ]
  %44 = sub nuw nsw i64 1024, %.1.i24
  %45 = tail call i64 @llvm.umin.i64(i64 %.02125.i22, i64 %44)
  %46 = getelementptr inbounds nuw i8, ptr %38, i64 %.1.i24
  tail call void @llvm.memcpy.p0.p0.i64(ptr noundef nonnull align 1 dereferenceable(1) %46, ptr noundef nonnull align 1 dereferenceable(1) %.026.i21, i64 %45, i1 false)
  %47 = add nuw nsw i64 %45, %.1.i24
  %48 = getelementptr inbounds nuw i8, ptr %.026.i21, i64 %45
  %49 = sub i64 %.02125.i22, %45
  %.not.i25 = icmp eq i64 %49, 0
  br i1 %.not.i25, label %AppendJumble.exit27, label %.lr.ph.i20, !llvm.loop !7

AppendJumble.exit27:                              ; preds = %43
  store i64 %47, ptr %5, align 8
  ret void
}